(dp0
S'sysUp'
p1
(dp2
S'var'
p3
S'Up'
p4
sS'm1'
p5
(dp6
S'rec'
p7
(lp8
(lp9
F110.6869161315436
aF0.16038061916359297
aa(lp10
F111.30707210140326
aF0.16566130374016352
aa(lp11
F111.60519959443391
aF0.1691861851730456
aa(lp12
F111.97904997074112
aF0.1708785030780579
aa(lp13
F112.09447059395308
aF0.17301021372095438
aa(lp14
F112.58890468030121
aF0.176615330400475
aa(lp15
F113.34096054650053
aF0.18355064127409576
aasS'gen'
p16
(lp17
(lp18
F109.9970643294733
aF0.15972842785919236
aa(lp19
F110.66636807990484
aF0.16514654217426628
aa(lp20
F110.9478464211001
aF0.16866558948157712
aa(lp21
F111.31928389188208
aF0.17028751872122241
aa(lp22
F111.41335356118326
aF0.17244546439225747
aa(lp23
F111.93230177072559
aF0.1761354000288471
aa(lp24
F112.6995165150809
aF0.18304679174073402
aassS'type'
p25
S'TopPtReweight'
p26
sS'm2'
p27
(dp28
g7
(lp29
(lp30
F15659.58038518932
aF45.28325819721124
aa(lp31
F15829.345696927958
aF46.825747826100816
aa(lp32
F15908.9141710764
aF47.9316103181205
aa(lp33
F16011.416480372822
aF48.514462961946364
aa(lp34
F16051.528613788147
aF49.144560420984824
aa(lp35
F16182.409931487378
aF50.19800637186725
aa(lp36
F16418.16772162998
aF52.46261971114161
aasg16
(lp37
(lp38
F15479.680192521384
aF44.84082798633495
aa(lp39
F15665.780815398613
aF46.45903972952181
aa(lp40
F15741.399562449355
aF47.56821718018356
aa(lp41
F15840.116725306116
aF48.10984149839501
aa(lp42
F15876.570056416282
aF48.741236848415284
aa(lp43
F16015.959492083533
aF49.83910040108419
aa(lp44
F16253.59195532032
aF52.11534439873283
aasssS'cut'
p45
F300.0
sS'nominal'
p46
(dp47
g5
(dp48
g7
(lp49
(lp50
F111.57046384441247
aF0.16117093750237488
aa(lp51
F112.19077281188679
aF0.16639613386772845
aa(lp52
F112.49694849414138
aF0.16990799729115028
aa(lp53
F112.8679404222443
aF0.17158646699264238
aa(lp54
F112.98746242366276
aF0.17367733542972644
aa(lp55
F113.48332641873
aF0.17727037467581624
aa(lp56
F114.23933537816244
aF0.18410994883449758
aasg16
(lp57
(lp58
F110.86960255457238
aF0.16051550597303293
aa(lp59
F111.54063451349904
aF0.16587723696681522
aa(lp60
F111.83006708536917
aF0.1693844758967021
aa(lp61
F112.19890776890767
aF0.17099479654684624
aa(lp62
F112.29605015009744
aF0.17311006886667235
aa(lp63
F112.81660767349562
aF0.17678730486204455
aa(lp64
F113.58756084484835
aF0.18360566523737543
aassg27
(dp65
g7
(lp66
(lp67
F15901.554782995661
aF45.71745434158367
aa(lp68
F16071.850930628536
aF47.249569401030755
aa(lp69
F16154.526633467225
aF48.35946776211844
aa(lp70
F16257.580313225795
aF48.93997660559261
aa(lp71
F16298.11177868239
aF49.558639729333194
aa(lp72
F16430.248516473643
aF50.614771489614796
aa(lp73
F16667.553672776812
aF52.86167929757969
aasg16
(lp74
(lp75
F15717.622966375977
aF45.270547705910275
aa(lp76
F15904.692408186516
aF46.87865084375891
aa(lp77
F15983.398288969189
aF47.992221797014714
aa(lp78
F16082.780480690188
aF48.53245633829208
aa(lp79
F16119.313526913575
aF49.150974763201454
aa(lp80
F16260.038943046553
aF50.252084518560736
aa(lp81
F16499.275254646393
aF52.51044594516523
aasssS'obs'
p82
S'Mll'
p83
s.