(dp0
S'sysUp'
p1
(dp2
S'var'
p3
S'Up'
p4
sS'm1'
p5
(dp6
S'rec'
p7
(lp8
(lp9
F69.69866557217225
aF0.09541073473305584
aa(lp10
F70.41983980362345
aF0.09822871191313529
aa(lp11
F70.7705718531136
aF0.10067518782594093
aa(lp12
F70.98573208417024
aF0.10150596560410065
aa(lp13
F71.36259549035438
aF0.10307419264480067
aa(lp14
F71.7315489602732
aF0.10530395469841183
aa(lp15
F72.26644121433998
aF0.10895242390934338
aasS'gen'
p16
(lp17
(lp18
F69.29145999556206
aF0.09515141944433811
aa(lp19
F70.05056848539549
aF0.09800196963919851
aa(lp20
F70.36986629601007
aF0.10040308106471414
aa(lp21
F70.59023632434109
aF0.10125229051741544
aa(lp22
F70.9759743510403
aF0.10282096868891089
aa(lp23
F71.35477020655578
aF0.10506860535723603
aa(lp24
F71.8890768223511
aF0.10859508718527436
aassS'type'
p25
S'pileup'
p26
sS'm2'
p27
(dp28
g7
(lp29
(lp30
F6081.808034245224
aF15.641327337472985
aa(lp31
F6186.50414507301
aF16.176448602909485
aa(lp32
F6250.246242907189
aF16.641224059548072
aa(lp33
F6283.977842250643
aF16.79815064455237
aa(lp34
F6349.137555162143
aF17.127780317867767
aa(lp35
F6411.461354387948
aF17.547962157152618
aa(lp36
F6502.5907149815175
aF18.270858255955552
aasg16
(lp37
(lp38
F6018.566662917908
aF15.546842258008313
aa(lp39
F6128.971860782216
aF16.089826710532616
aa(lp40
F6186.986985568093
aF16.537740448263698
aa(lp41
F6221.770107925648
aF16.702569072724735
aa(lp42
F6287.940226900104
aF17.03233767237363
aa(lp43
F6351.896686780469
aF17.453122997825993
aa(lp44
F6439.808167295406
aF18.147416962544796
aasssS'sysDown'
p45
(dp46
g3
S'Down'
p47
sg5
(dp48
g7
(lp49
(lp50
F69.6216968469317
aF0.09498024834429115
aa(lp51
F70.40922402830924
aF0.09771480604620437
aa(lp52
F70.76124248062348
aF0.1002039945681868
aa(lp53
F70.94346530477655
aF0.10101815528779318
aa(lp54
F71.34381711234573
aF0.10255447707938127
aa(lp55
F71.72066887676766
aF0.10468110485716442
aa(lp56
F72.26260114848046
aF0.10839252943276796
aasg16
(lp57
(lp58
F69.21866198426402
aF0.09474391015570406
aa(lp59
F70.04836866194516
aF0.09748866245268488
aa(lp60
F70.36579957784205
aF0.09994972167658786
aa(lp61
F70.5515400610372
aF0.100763435767572
aa(lp62
F70.9575931103176
aF0.10230122090108194
aa(lp63
F71.34405763169137
aF0.10443685503566451
aa(lp64
F71.88199638398045
aF0.10802772643195811
aassg25
g26
sg27
(dp65
g7
(lp66
(lp67
F6071.150540393092
aF15.562032304276501
aa(lp68
F6183.894882705713
aF16.089611214528297
aa(lp69
F6248.803301387028
aF16.562618701593397
aa(lp70
F6276.3279626840485
aF16.710175532760292
aa(lp71
F6346.114975059813
aF17.041119850405053
aa(lp72
F6407.531834586749
aF17.438357582958417
aa(lp73
F6502.08476790256
aF18.191268848124572
aasg16
(lp74
(lp75
F6009.109435277053
aF15.472241207632706
aa(lp76
F6127.539837942431
aF16.004533191695174
aa(lp77
F6186.7021061111
aF16.465513934890186
aa(lp78
F6214.610120733081
aF16.612357690436088
aa(lp79
F6284.958219975444
aF16.943529744806803
aa(lp80
F6347.761914895723
aF17.341418066150087
aa(lp81
F6438.619926057176
aF18.06607279115149
aasssS'cut'
p82
F180.0
sS'nominal'
p83
(dp84
g5
(dp85
g7
(lp86
(lp87
F69.66342415215317
aF0.0951962650084965
aa(lp88
F70.41404068664811
aF0.09796714000046931
aa(lp89
F70.76569118944157
aF0.1004355771116041
aa(lp90
F70.96403812965019
aF0.10125787141595022
aa(lp91
F71.35479828694046
aF0.10280758504026101
aa(lp92
F71.72650337451793
aF0.1049925443875296
aa(lp93
F72.26451810322939
aF0.10866138114513721
aasg16
(lp94
(lp95
F69.25830224832768
aF0.09494777585633507
aa(lp96
F70.04882982104519
aF0.09774100619980172
aa(lp97
F70.36776554198075
aF0.10017216161416162
aa(lp98
F70.57077379078612
aF0.10100387606377204
aa(lp99
F70.96863662745463
aF0.10255555497663278
aa(lp100
F71.35000567666204
aF0.10475364871513866
aa(lp101
F71.88563587295106
aF0.1083007677512789
aassg27
(dp102
g7
(lp103
(lp104
F6077.0495677691215
aF15.602755728226905
aa(lp105
F6185.08427132322
aF16.13228088365606
aa(lp106
F6249.488443324806
aF16.601225302314273
aa(lp107
F6280.077593464887
aF16.75315227955084
aa(lp108
F6347.766431941328
aF17.083351544338726
aa(lp109
F6409.581483861747
aF17.49296794295303
aa(lp110
F6502.114447920372
aF18.22841162550118
aasg16
(lp111
(lp112
F6014.387404870032
aF15.510382399121287
aa(lp113
F6128.12801176647
aF16.04650763175957
aa(lp114
F6186.823044161656
aF16.500894153966236
aa(lp115
F6218.1830083781915
aF16.65668973815934
aa(lp116
F6286.65475581988
aF16.987250631034275
aa(lp117
F6349.963899064714
aF17.397434725912614
aa(lp118
F6439.017073953064
aF18.103998403016327
aasssS'obs'
p119
S'ptll'
p120
s.