(dp0
S'sysUp'
p1
(dp2
S'var'
p3
S'Up'
p4
sS'm1'
p5
(dp6
S'rec'
p7
(lp8
(lp9
F69.48856197941613
aF0.09497664078340043
aa(lp10
F70.24269319098153
aF0.09778250807906363
aa(lp11
F70.58840528065036
aF0.10027140886456097
aa(lp12
F70.79238854728835
aF0.10112215645490277
aa(lp13
F71.18153705129166
aF0.10268299261827073
aa(lp14
F71.55504168284331
aF0.10488845509391022
aa(lp15
F72.10131811139577
aF0.10858907366109974
aasS'gen'
p16
(lp17
(lp18
F69.0872197803959
aF0.09472489147248668
aa(lp19
F69.87955821678375
aF0.09755001990877642
aa(lp20
F70.19335095866494
aF0.10000175154240692
aa(lp21
F70.40192297042654
aF0.10086175818876596
aa(lp22
F70.79743592870408
aF0.10242541363309274
aa(lp23
F71.18187878121165
aF0.104644714828349
aa(lp24
F71.72383503827211
aF0.10822515569968
aassS'type'
p25
S'TopPtReweight'
p26
sS'm2'
p27
(dp28
g7
(lp29
(lp30
F6041.681365855666
aF15.517344444553094
aa(lp31
F6150.1257599269975
aF16.05241826043953
aa(lp32
F6213.443248988049
aF16.523008299397603
aa(lp33
F6245.093777899736
aF16.680706077986372
aa(lp34
F6312.259246249658
aF17.011982039351448
aa(lp35
F6374.307678900763
aF17.424556376056728
aa(lp36
F6467.38571565316
aF18.162967026093067
aasg16
(lp37
(lp38
F5979.643003928412
aF15.423809958861762
aa(lp39
F6093.466582143327
aF15.963217533988994
aa(lp40
F6151.21621967058
aF16.418746433195945
aa(lp41
F6183.617539425663
aF16.581242785102617
aa(lp42
F6251.484419153214
aF16.912104751548064
aa(lp43
F6315.221372729164
aF17.3263308480134
aa(lp44
F6404.604163043823
aF18.036255667297684
aasssS'cut'
p45
F180.0
sS'nominal'
p46
(dp47
g5
(dp48
g7
(lp49
(lp50
F69.66342415215317
aF0.0951962650084965
aa(lp51
F70.41404068664811
aF0.09796714000046931
aa(lp52
F70.76569118944157
aF0.1004355771116041
aa(lp53
F70.96403812965019
aF0.10125787141595022
aa(lp54
F71.35479828694046
aF0.10280758504026101
aa(lp55
F71.72650337451793
aF0.1049925443875296
aa(lp56
F72.26451810322939
aF0.10866138114513721
aasg16
(lp57
(lp58
F69.25830224832768
aF0.09494777585633507
aa(lp59
F70.04882982104519
aF0.09774100619980172
aa(lp60
F70.36776554198075
aF0.10017216161416162
aa(lp61
F70.57077379078612
aF0.10100387606377204
aa(lp62
F70.96863662745463
aF0.10255555497663278
aa(lp63
F71.35000567666204
aF0.10475364871513866
aa(lp64
F71.88563587295106
aF0.1083007677512789
aassg27
(dp65
g7
(lp66
(lp67
F6077.0495677691215
aF15.602755728226905
aa(lp68
F6185.08427132322
aF16.13228088365606
aa(lp69
F6249.488443324806
aF16.601225302314273
aa(lp70
F6280.077593464887
aF16.75315227955084
aa(lp71
F6347.766431941328
aF17.083351544338726
aa(lp72
F6409.581483861747
aF17.49296794295303
aa(lp73
F6502.114447920372
aF18.22841162550118
aasg16
(lp74
(lp75
F6014.387404870032
aF15.510382399121287
aa(lp76
F6128.12801176647
aF16.04650763175957
aa(lp77
F6186.823044161656
aF16.500894153966236
aa(lp78
F6218.1830083781915
aF16.65668973815934
aa(lp79
F6286.65475581988
aF16.987250631034275
aa(lp80
F6349.963899064714
aF17.397434725912614
aa(lp81
F6439.017073953064
aF18.103998403016327
aasssS'obs'
p82
S'ptll'
p83
s.