(dp0
S'cut'
p1
I180
sS'nominal'
p2
(dp3
S'm1'
p4
(dp5
S'rec'
p6
(lp7
(lp8
F69.6634535895463
aF0.09519641357996035
aa(lp9
F70.41403908540615
aF0.09796730622847892
aa(lp10
F70.63985428070048
aF0.10039020433161207
aa(lp11
F70.96405652842563
aF0.10125802872277756
aa(lp12
F71.2625314576177
aF0.10312473245897018
aa(lp13
F71.72650848055146
aF0.10499276807927947
aa(lp14
F72.26452074805105
aF0.108661596617103
aasS'gen'
p15
(lp16
(lp17
F69.25833150346253
aF0.0949479173656153
aa(lp18
F70.04882535009152
aF0.0977411709548377
aa(lp19
F70.2381968406479
aF0.1001369006378063
aa(lp20
F70.57079148572603
aF0.1010040368205239
aa(lp21
F70.89116828095909
aF0.10280997184054365
aa(lp22
F71.35000932251955
aF0.10475387622532285
aa(lp23
F71.88564061913614
aF0.10830098285911102
aassS'm2'
p24
(dp25
g6
(lp26
(lp27
F6077.053973744946
aF15.602785373417728
aa(lp28
F6185.0843221451705
aF16.13230909919886
aa(lp29
F6230.012112428899
aF16.604134059886956
aa(lp30
F6280.080693078491
aF16.75317915668429
aa(lp31
F6340.9455446073025
aF17.146939850476425
aa(lp32
F6409.58322203019
aF17.49301003405039
aa(lp33
F6502.11503607199
aF18.228443540399965
aasg15
(lp34
(lp35
F6014.391588967594
aF15.510410975354299
aa(lp36
F6128.127633222641
aF16.046535281790096
aa(lp37
F6167.177658572897
aF16.49550324391571
aa(lp38
F6218.18608597354
aF16.65671863733336
aa(lp39
F6280.459178482404
aF17.024359393177686
aa(lp40
F6349.965524480796
aF17.397477719809885
aa(lp41
F6439.017969092331
aF18.104029720040486
aasssS'obs'
p42
S'ptll'
p43
s.